; Function Attrs: nounwind uwtable
define internal fastcc range(i32 0, 2) i32 @int_to_dict(ptr noundef nonnull %0, ptr noundef %1, i32 noundef range(i32 0, 15) %2) unnamed_addr #0 {
  %4 = zext nneg i32 %2 to i64
  %5 = tail call ptr @PyLong_FromLong(i64 noundef %4) #13
  %.not = icmp eq ptr %5, null
  br i1 %.not, label %Py_DECREF.exit, label %6

6:                                                ; preds = %3
  %7 = tail call i32 @PyDict_SetItemString(ptr noundef nonnull %0, ptr noundef %1, ptr noundef nonnull %5) #13
  %8 = icmp eq i32 %7, 0
  %9 = load i32, ptr %5, align 8, !tbaa !16
  %.not.i = icmp sgt i32 %9, -1
  br i1 %.not.i, label %10, label %Py_DECREF.exit

10:                                               ; preds = %6
  %11 = add nsw i32 %9, -1
  store i32 %11, ptr %5, align 8, !tbaa !16
  %12 = icmp eq i32 %11, 0
  br i1 %12, label %13, label %Py_DECREF.exit

13:                                               ; preds = %10
  tail call void @_Py_Dealloc(ptr noundef nonnull %5) #13
  br label %Py_DECREF.exit

Py_DECREF.exit:                                   ; preds = %13, %10, %6, %3
  %.0.shrunk = phi i1 [ false, %3 ], [ %8, %6 ], [ %8, %10 ], [ %8, %13 ]
  %.0 = zext i1 %.0.shrunk to i32
  ret i32 %.0
}